; Function Attrs: mustprogress uwtable
define hidden void @_ZN4cvc58internal6theory11quantifiers19InstantiationEngine8presolveEv(ptr nocapture noundef nonnull readonly align 8 dereferenceable(240) %this) unnamed_addr #3 align 2 {
entry:
  %d_instStrategies = getelementptr inbounds i8, ptr %this, i64 48
  %_M_finish.i = getelementptr inbounds i8, ptr %this, i64 56
  %0 = load ptr, ptr %_M_finish.i, align 8
  %1 = load ptr, ptr %d_instStrategies, align 8
  %cmp7.not = icmp eq ptr %0, %1
  br i1 %cmp7.not, label %for.end, label %for.body

for.body:                                         ; preds = %entry, %for.body
  %2 = phi ptr [ %6, %for.body ], [ %1, %entry ]
  %conv9 = phi i64 [ %conv, %for.body ], [ 0, %entry ]
  %i.08 = phi i32 [ %inc, %for.body ], [ 0, %entry ]
  %add.ptr.i = getelementptr inbounds ptr, ptr %2, i64 %conv9
  %3 = load ptr, ptr %add.ptr.i, align 8
  %vtable = load ptr, ptr %3, align 8
  %vfn = getelementptr inbounds i8, ptr %vtable, i64 16
  %4 = load ptr, ptr %vfn, align 8
  tail call void %4(ptr noundef nonnull align 8 dereferenceable(56) %3)
  %inc = add i32 %i.08, 1
  %conv = zext i32 %inc to i64
  %5 = load ptr, ptr %_M_finish.i, align 8
  %6 = load ptr, ptr %d_instStrategies, align 8
  %sub.ptr.lhs.cast.i = ptrtoint ptr %5 to i64
  %sub.ptr.rhs.cast.i = ptrtoint ptr %6 to i64
  %sub.ptr.sub.i = sub i64 %sub.ptr.lhs.cast.i, %sub.ptr.rhs.cast.i
  %sub.ptr.div.i = ashr exact i64 %sub.ptr.sub.i, 3
  %cmp = icmp ugt i64 %sub.ptr.div.i, %conv
  br i1 %cmp, label %for.body, label %for.end, !llvm.loop !6

for.end:                                          ; preds = %for.body, %entry
  ret void
}